target datalayout = "e-m:e-p270:32:32-p271:32:32-p272:64:64-i64:64-i128:128-f80:128-n8:16:32:64-S128"
target triple = "x86_64-pc-linux-gnu"

%class.cmCTestVC = type <{ ptr, ptr, ptr, %"class.std::__cxx11::basic_string", %"class.std::__cxx11::basic_string", %"class.std::__cxx11::basic_string", %"struct.cmCTestVC::Revision", [3 x i32], [4 x i8] }>
%"class.std::__cxx11::basic_string" = type { %"struct.std::__cxx11::basic_string<char>::_Alloc_hider", i64, %union.anon }
%"struct.std::__cxx11::basic_string<char>::_Alloc_hider" = type { ptr }
%union.anon = type { i64, [8 x i8] }
%"struct.cmCTestVC::Revision" = type { %"class.std::__cxx11::basic_string", %"class.std::__cxx11::basic_string", %"class.std::__cxx11::basic_string", %"class.std::__cxx11::basic_string", %"class.std::__cxx11::basic_string", %"class.std::__cxx11::basic_string", %"class.std::__cxx11::basic_string", %"class.std::__cxx11::basic_string" }

@.str.23 = private unnamed_addr constant [25 x i8] c"--- Begin Revisions ---\0A\00", align 1
@.str.24 = private unnamed_addr constant [23 x i8] c"--- End Revisions ---\0A\00", align 1

; Function Attrs: mustprogress uwtable
define dso_local noundef zeroext i1 @_ZN9cmCTestVC8WriteXMLER11cmXMLWriter(ptr noundef nonnull align 8 dereferenceable(388) %0, ptr noundef nonnull align 8 dereferenceable(83) %1) #4 align 2 {
  %3 = alloca ptr, align 8
  %4 = alloca ptr, align 8
  %5 = alloca i8, align 1
  store ptr %0, ptr %3, align 8
  store ptr %1, ptr %4, align 8
  %6 = load ptr, ptr %3, align 8
  %7 = getelementptr inbounds %class.cmCTestVC, ptr %6, i32 0, i32 2
  %8 = load ptr, ptr %7, align 8
  %9 = call noundef nonnull align 8 dereferenceable(8) ptr @_ZStlsISt11char_traitsIcEERSt13basic_ostreamIcT_ES5_PKc(ptr noundef nonnull align 8 dereferenceable(8) %8, ptr noundef @.str.23)
  %10 = load ptr, ptr %4, align 8
  %11 = load ptr, ptr %6, align 8
  %12 = getelementptr inbounds ptr, ptr %11, i64 7
  %13 = load ptr, ptr %12, align 8
  %14 = call noundef zeroext i1 %13(ptr noundef nonnull align 8 dereferenceable(388) %6, ptr noundef nonnull align 8 dereferenceable(83) %10)
  %15 = zext i1 %14 to i8
  store i8 %15, ptr %5, align 1
  %16 = getelementptr inbounds %class.cmCTestVC, ptr %6, i32 0, i32 2
  %17 = load ptr, ptr %16, align 8
  %18 = call noundef nonnull align 8 dereferenceable(8) ptr @_ZStlsISt11char_traitsIcEERSt13basic_ostreamIcT_ES5_PKc(ptr noundef nonnull align 8 dereferenceable(8) %17, ptr noundef @.str.24)
  %19 = load i8, ptr %5, align 1
  %20 = trunc i8 %19 to i1
  ret i1 %20
}