; Function Attrs: mustprogress uwtable
define dso_local noundef zeroext i1 @_ZN9cmCTestVC8WriteXMLER11cmXMLWriter(ptr noundef nonnull align 8 dereferenceable(388) %0, ptr noundef nonnull align 8 dereferenceable(83) %1) local_unnamed_addr #3 align 2 {
  %3 = getelementptr inbounds i8, ptr %0, i64 16
  %4 = load ptr, ptr %3, align 8
  %5 = tail call noundef nonnull align 8 dereferenceable(8) ptr @_ZStlsISt11char_traitsIcEERSt13basic_ostreamIcT_ES5_PKc(ptr noundef nonnull align 8 dereferenceable(8) %4, ptr noundef nonnull @.str.23)
  %6 = load ptr, ptr %0, align 8
  %7 = getelementptr inbounds i8, ptr %6, i64 56
  %8 = load ptr, ptr %7, align 8
  %9 = tail call noundef zeroext i1 %8(ptr noundef nonnull align 8 dereferenceable(388) %0, ptr noundef nonnull align 8 dereferenceable(83) %1)
  %10 = load ptr, ptr %3, align 8
  %11 = tail call noundef nonnull align 8 dereferenceable(8) ptr @_ZStlsISt11char_traitsIcEERSt13basic_ostreamIcT_ES5_PKc(ptr noundef nonnull align 8 dereferenceable(8) %10, ptr noundef nonnull @.str.24)
  ret i1 %9
}